; Function Attrs: mustprogress uwtable
define void @_ZN2cv3dnn14dnn4_v2024122324blobFromImagesWithParamsERKNS_11_InputArrayERKNS1_16Image2BlobParamsE(ptr dead_on_unwind noalias writable sret(%"class.cv::Mat") align 8 %0, ptr noundef nonnull align 8 dereferenceable(24) %1, ptr noundef nonnull align 8 dereferenceable(120) %2) local_unnamed_addr #6 personality ptr @__gxx_personality_v0 {
  %4 = alloca %"class.cv::utils::trace::details::Region", align 8
  %5 = alloca %"class.cv::_OutputArray", align 8
  call void @llvm.lifetime.start.p0(i64 16, ptr nonnull %4) #21
  call void @_ZN2cv5utils5trace7details6RegionC1ERKNS3_21LocationStaticStorageE(ptr noundef nonnull align 8 dereferenceable(12) %4, ptr noundef nonnull align 8 dereferenceable(32) @_ZZN2cv3dnn14dnn4_v2024122324blobFromImagesWithParamsERKNS_11_InputArrayERKNS1_16Image2BlobParamsEE25__cv_trace_location_fn123)
  call void @_ZN2cv3MatC1Ev(ptr noundef nonnull align 8 dereferenceable(96) %0) #21
  call void @llvm.lifetime.start.p0(i64 24, ptr nonnull %5) #21
  %6 = getelementptr inbounds nuw i8, ptr %5, i64 8
  %7 = getelementptr inbounds nuw i8, ptr %5, i64 16
  store i64 0, ptr %7, align 8
  store i32 33619968, ptr %5, align 8, !tbaa !61
  store ptr %0, ptr %6, align 8, !tbaa !28
  invoke void @_ZN2cv3dnn14dnn4_v2024122324blobFromImagesWithParamsERKNS_11_InputArrayERKNS_12_OutputArrayERKNS1_16Image2BlobParamsE(ptr noundef nonnull align 8 dereferenceable(24) %1, ptr noundef nonnull align 8 dereferenceable(24) %5, ptr noundef nonnull align 8 dereferenceable(120) %2)
          to label %8 unwind label %15

8:                                                ; preds = %3
  call void @llvm.lifetime.end.p0(i64 24, ptr nonnull %5) #21
  %9 = getelementptr inbounds nuw i8, ptr %4, i64 8
  %10 = load i32, ptr %9, align 8, !tbaa !62
  %.not.i = icmp eq i32 %10, 0
  br i1 %.not.i, label %_ZN2cv5utils5trace7details6RegionD2Ev.exit, label %11

11:                                               ; preds = %8
  invoke void @_ZN2cv5utils5trace7details6Region7destroyEv(ptr noundef nonnull align 8 dereferenceable(12) %4)
          to label %_ZN2cv5utils5trace7details6RegionD2Ev.exit unwind label %12

12:                                               ; preds = %11
  %13 = landingpad { ptr, i32 }
          catch ptr null
  %14 = extractvalue { ptr, i32 } %13, 0
  call void @__clang_call_terminate(ptr %14) #22
  unreachable

_ZN2cv5utils5trace7details6RegionD2Ev.exit:       ; preds = %8, %11
  call void @llvm.lifetime.end.p0(i64 16, ptr nonnull %4) #21
  ret void

15:                                               ; preds = %3
  %16 = landingpad { ptr, i32 }
          cleanup
  call void @llvm.lifetime.end.p0(i64 24, ptr nonnull %5) #21
  call void @_ZN2cv3MatD1Ev(ptr noundef nonnull align 8 dereferenceable(96) %0) #21
  call void @_ZN2cv5utils5trace7details6RegionD2Ev(ptr noundef nonnull align 8 dereferenceable(12) %4) #21
  call void @llvm.lifetime.end.p0(i64 16, ptr nonnull %4) #21
  resume { ptr, i32 } %16
}